target datalayout = "e-m:e-p270:32:32-p271:32:32-p272:64:64-i64:64-i128:128-f80:128-n8:16:32:64-S128"
target triple = "x86_64-pc-linux-gnu"

%struct._typeobject = type { %struct.PyVarObject, ptr, i64, i64, ptr, i64, ptr, ptr, ptr, ptr, ptr, ptr, ptr, ptr, ptr, ptr, ptr, ptr, ptr, i64, ptr, ptr, ptr, ptr, i64, ptr, ptr, ptr, ptr, ptr, ptr, ptr, ptr, ptr, i64, ptr, ptr, ptr, ptr, ptr, ptr, ptr, ptr, ptr, ptr, ptr, i32, ptr, ptr, i8, i16 }
%struct.PyVarObject = type { %struct._object, i64 }
%struct._object = type { %union.anon, ptr }
%union.anon = type { i64 }
%struct._ts = type { ptr, ptr, ptr, i64, %struct.anon.805, i32, i32, i32, i32, i32, i32, i32, i32, ptr, ptr, ptr, ptr, ptr, ptr, ptr, ptr, i32, ptr, i64, i64, ptr, i64, i32, ptr, ptr, ptr, i64, i64, ptr, ptr, ptr, %struct._err_stackitem, ptr, i64, ptr, ptr }
%struct.anon.805 = type { i32 }
%struct._err_stackitem = type { ptr, ptr }
%struct.PyDictObject = type { %struct._object, i64, i64, ptr, ptr }
%struct._dictvalues = type { i8, i8, i8, i8, [1 x ptr] }
%struct.anon = type { i32, i32 }

@.str.39 = private unnamed_addr constant [56 x i8] c"Exception ignored while clearing an object managed dict\00", align 1
@_Py_tss_tstate = external thread_local global ptr, align 8
@empty_keys_struct = internal global { i64, i8, i8, i8, i8, i32, i64, i64, [8 x i8] } { i64 -9223372036854775808, i8 0, i8 3, i8 1, i8 0, i32 1, i64 0, i64 0, [8 x i8] c"\FF\FF\FF\FF\FF\FF\FF\FF" }, align 8

; Function Attrs: alwaysinline nounwind uwtable
define internal i32 @_Py_IsImmortal(ptr noundef %0) #6 {
  %2 = alloca ptr, align 8
  store ptr %0, ptr %2, align 8, !tbaa !27
  %3 = load ptr, ptr %2, align 8, !tbaa !27
  %4 = getelementptr inbounds nuw %struct._object, ptr %3, i32 0, i32 0
  %5 = getelementptr inbounds nuw %struct.anon, ptr %4, i32 0, i32 0
  %6 = load i32, ptr %5, align 8, !tbaa !38
  %7 = icmp slt i32 %6, 0
  %8 = zext i1 %7 to i32
  ret i32 %8
}

; Function Attrs: alwaysinline nounwind uwtable
define internal void @Py_INCREF(ptr noundef %0) #6 {
  %2 = alloca ptr, align 8
  %3 = alloca i32, align 4
  %4 = alloca i32, align 4
  store ptr %0, ptr %2, align 8, !tbaa !27
  call void @llvm.lifetime.start.p0(i64 4, ptr %3) #10
  %5 = load ptr, ptr %2, align 8, !tbaa !27
  %6 = getelementptr inbounds nuw %struct._object, ptr %5, i32 0, i32 0
  %7 = getelementptr inbounds nuw %struct.anon, ptr %6, i32 0, i32 0
  %8 = load i32, ptr %7, align 8, !tbaa !38
  store i32 %8, ptr %3, align 4, !tbaa !28
  %9 = load i32, ptr %3, align 4, !tbaa !28
  %10 = icmp slt i32 %9, 0
  br i1 %10, label %11, label %12

11:                                               ; preds = %1
  store i32 1, ptr %4, align 4
  br label %18

12:                                               ; preds = %1
  %13 = load i32, ptr %3, align 4, !tbaa !28
  %14 = add i32 %13, 1
  %15 = load ptr, ptr %2, align 8, !tbaa !27
  %16 = getelementptr inbounds nuw %struct._object, ptr %15, i32 0, i32 0
  %17 = getelementptr inbounds nuw %struct.anon, ptr %16, i32 0, i32 0
  store i32 %14, ptr %17, align 8, !tbaa !38
  store i32 0, ptr %4, align 4
  br label %18

18:                                               ; preds = %12, %11
  call void @llvm.lifetime.end.p0(i64 4, ptr %3) #10
  %19 = load i32, ptr %4, align 4
  switch i32 %19, label %21 [
    i32 0, label %20
    i32 1, label %20
  ]

20:                                               ; preds = %18, %18
  ret void

21:                                               ; preds = %18
  unreachable
}

; Function Attrs: inlinehint nounwind uwtable
define internal ptr @_Py_TYPE(ptr noundef %0) #2 {
  %2 = alloca ptr, align 8
  store ptr %0, ptr %2, align 8, !tbaa !27
  %3 = load ptr, ptr %2, align 8, !tbaa !27
  %4 = getelementptr inbounds nuw %struct._object, ptr %3, i32 0, i32 1
  %5 = load ptr, ptr %4, align 8, !tbaa !65
  ret ptr %5
}

; Function Attrs: alwaysinline nounwind uwtable
define internal void @Py_DECREF(ptr noundef %0) #6 {
  %2 = alloca ptr, align 8
  store ptr %0, ptr %2, align 8, !tbaa !27
  %3 = load ptr, ptr %2, align 8, !tbaa !27
  %4 = call i32 @_Py_IsImmortal(ptr noundef %3)
  %5 = icmp ne i32 %4, 0
  br i1 %5, label %6, label %7

6:                                                ; preds = %1
  br label %16

7:                                                ; preds = %1
  %8 = load ptr, ptr %2, align 8, !tbaa !27
  %9 = getelementptr inbounds nuw %struct._object, ptr %8, i32 0, i32 0
  %10 = getelementptr inbounds nuw %struct.anon, ptr %9, i32 0, i32 0
  %11 = load i32, ptr %10, align 8, !tbaa !38
  %12 = add i32 %11, -1
  store i32 %12, ptr %10, align 8, !tbaa !38
  %13 = icmp eq i32 %12, 0
  br i1 %13, label %14, label %16

14:                                               ; preds = %7
  %15 = load ptr, ptr %2, align 8, !tbaa !27
  call void @_Py_Dealloc(ptr noundef %15)
  br label %16

16:                                               ; preds = %6, %14, %7
  ret void
}

; Function Attrs: inlinehint nounwind uwtable
define internal void @Py_XINCREF(ptr noundef %0) #2 {
  %2 = alloca ptr, align 8
  store ptr %0, ptr %2, align 8, !tbaa !27
  %3 = load ptr, ptr %2, align 8, !tbaa !27
  %4 = icmp ne ptr %3, null
  br i1 %4, label %5, label %7

5:                                                ; preds = %1
  %6 = load ptr, ptr %2, align 8, !tbaa !27
  call void @Py_INCREF(ptr noundef %6)
  br label %7

7:                                                ; preds = %5, %1
  ret void
}

; Function Attrs: inlinehint nounwind uwtable
define internal ptr @_PyObject_InlineValues(ptr noundef %0) #2 {
  %2 = alloca ptr, align 8
  %3 = alloca ptr, align 8
  store ptr %0, ptr %2, align 8, !tbaa !27
  call void @llvm.lifetime.start.p0(i64 8, ptr %3) #10
  %4 = load ptr, ptr %2, align 8, !tbaa !27
  %5 = call ptr @_Py_TYPE(ptr noundef %4)
  store ptr %5, ptr %3, align 8, !tbaa !56
  %6 = load ptr, ptr %2, align 8, !tbaa !27
  %7 = load ptr, ptr %3, align 8, !tbaa !56
  %8 = getelementptr inbounds nuw %struct._typeobject, ptr %7, i32 0, i32 2
  %9 = load i64, ptr %8, align 8, !tbaa !210
  %10 = getelementptr i8, ptr %6, i64 %9
  call void @llvm.lifetime.end.p0(i64 8, ptr %3) #10
  ret ptr %10
}

; Function Attrs: inlinehint nounwind uwtable
define internal ptr @_PyThreadState_GET() #2 {
  %1 = call align 8 ptr @llvm.threadlocal.address.p0(ptr align 8 @_Py_tss_tstate)
  %2 = load ptr, ptr %1, align 8, !tbaa !14
  ret ptr %2
}

; Function Attrs: nounwind uwtable
define internal void @set_dict_inline_values(ptr noundef %0, ptr noundef %1) #0 {
  %3 = alloca ptr, align 8
  %4 = alloca ptr, align 8
  %5 = alloca ptr, align 8
  %6 = alloca i64, align 8
  %7 = alloca ptr, align 8
  %8 = alloca ptr, align 8
  store ptr %0, ptr %3, align 8, !tbaa !27
  store ptr %1, ptr %4, align 8, !tbaa !29
  call void @llvm.lifetime.start.p0(i64 8, ptr %5) #10
  %9 = load ptr, ptr %3, align 8, !tbaa !27
  %10 = call ptr @_PyObject_InlineValues(ptr noundef %9)
  store ptr %10, ptr %5, align 8, !tbaa !72
  %11 = load ptr, ptr %4, align 8, !tbaa !29
  call void @Py_XINCREF(ptr noundef %11)
  %12 = load ptr, ptr %4, align 8, !tbaa !29
  %13 = load ptr, ptr %3, align 8, !tbaa !27
  %14 = call ptr @_PyObject_ManagedDictPointer(ptr noundef %13)
  store ptr %12, ptr %14, align 8, !tbaa !38
  %15 = load ptr, ptr %5, align 8, !tbaa !72
  %16 = getelementptr inbounds nuw %struct._dictvalues, ptr %15, i32 0, i32 3
  %17 = load i8, ptr %16, align 1, !tbaa !43
  %18 = icmp ne i8 %17, 0
  br i1 %18, label %19, label %50

19:                                               ; preds = %2
  %20 = load ptr, ptr %5, align 8, !tbaa !72
  %21 = getelementptr inbounds nuw %struct._dictvalues, ptr %20, i32 0, i32 3
  store i8 0, ptr %21, align 1, !tbaa !43
  call void @llvm.lifetime.start.p0(i64 8, ptr %6) #10
  store i64 0, ptr %6, align 8, !tbaa !39
  br label %22

22:                                               ; preds = %46, %19
  %23 = load i64, ptr %6, align 8, !tbaa !39
  %24 = load ptr, ptr %5, align 8, !tbaa !72
  %25 = getelementptr inbounds nuw %struct._dictvalues, ptr %24, i32 0, i32 0
  %26 = load i8, ptr %25, align 8, !tbaa !111
  %27 = zext i8 %26 to i64
  %28 = icmp slt i64 %23, %27
  br i1 %28, label %30, label %29

29:                                               ; preds = %22
  call void @llvm.lifetime.end.p0(i64 8, ptr %6) #10
  br label %49

30:                                               ; preds = %22
  br label %31

31:                                               ; preds = %30
  call void @llvm.lifetime.start.p0(i64 8, ptr %7) #10
  %32 = load ptr, ptr %5, align 8, !tbaa !72
  %33 = getelementptr inbounds nuw %struct._dictvalues, ptr %32, i32 0, i32 4
  %34 = load i64, ptr %6, align 8, !tbaa !39
  %35 = getelementptr [1 x ptr], ptr %33, i64 0, i64 %34
  store ptr %35, ptr %7, align 8, !tbaa !77
  call void @llvm.lifetime.start.p0(i64 8, ptr %8) #10
  %36 = load ptr, ptr %7, align 8, !tbaa !77
  %37 = load ptr, ptr %36, align 8, !tbaa !27
  store ptr %37, ptr %8, align 8, !tbaa !27
  %38 = load ptr, ptr %8, align 8, !tbaa !27
  %39 = icmp ne ptr %38, null
  br i1 %39, label %40, label %43

40:                                               ; preds = %31
  %41 = load ptr, ptr %7, align 8, !tbaa !77
  store ptr null, ptr %41, align 8, !tbaa !27
  %42 = load ptr, ptr %8, align 8, !tbaa !27
  call void @Py_DECREF(ptr noundef %42)
  br label %43

43:                                               ; preds = %40, %31
  call void @llvm.lifetime.end.p0(i64 8, ptr %8) #10
  call void @llvm.lifetime.end.p0(i64 8, ptr %7) #10
  br label %44

44:                                               ; preds = %43
  br label %45

45:                                               ; preds = %44
  br label %46

46:                                               ; preds = %45
  %47 = load i64, ptr %6, align 8, !tbaa !39
  %48 = add i64 %47, 1
  store i64 %48, ptr %6, align 8, !tbaa !39
  br label %22, !llvm.loop !217

49:                                               ; preds = %29
  br label %50

50:                                               ; preds = %49, %2
  call void @llvm.lifetime.end.p0(i64 8, ptr %5) #10
  ret void
}

; Function Attrs: inlinehint nounwind uwtable
define internal void @set_keys(ptr noundef %0, ptr noundef %1) #2 {
  %3 = alloca ptr, align 8
  %4 = alloca ptr, align 8
  store ptr %0, ptr %3, align 8, !tbaa !29
  store ptr %1, ptr %4, align 8, !tbaa !36
  %5 = load ptr, ptr %4, align 8, !tbaa !36
  %6 = load ptr, ptr %3, align 8, !tbaa !29
  %7 = getelementptr inbounds nuw %struct.PyDictObject, ptr %6, i32 0, i32 3
  store ptr %5, ptr %7, align 8, !tbaa !30
  ret void
}

; Function Attrs: inlinehint nounwind uwtable
define internal ptr @_PyInterpreterState_GET() #2 {
  %1 = alloca ptr, align 8
  call void @llvm.lifetime.start.p0(i64 8, ptr %1) #10
  %2 = call ptr @_PyThreadState_GET()
  store ptr %2, ptr %1, align 8, !tbaa !14
  %3 = load ptr, ptr %1, align 8, !tbaa !14
  %4 = getelementptr inbounds nuw %struct._ts, ptr %3, i32 0, i32 2
  %5 = load ptr, ptr %4, align 8, !tbaa !16
  call void @llvm.lifetime.end.p0(i64 8, ptr %1) #10
  ret ptr %5
}

; Function Attrs: inlinehint nounwind uwtable
define internal ptr @_PyObject_ManagedDictPointer(ptr noundef %0) #2 {
  %2 = alloca ptr, align 8
  store ptr %0, ptr %2, align 8, !tbaa !27
  %3 = load ptr, ptr %2, align 8, !tbaa !27
  %4 = getelementptr i8, ptr %3, i64 -24
  ret ptr %4
}

; Function Attrs: inlinehint nounwind uwtable
define internal ptr @_PyObject_GetManagedDict(ptr noundef %0) #2 {
  %2 = alloca ptr, align 8
  %3 = alloca ptr, align 8
  store ptr %0, ptr %2, align 8, !tbaa !27
  call void @llvm.lifetime.start.p0(i64 8, ptr %3) #10
  %4 = load ptr, ptr %2, align 8, !tbaa !27
  %5 = call ptr @_PyObject_ManagedDictPointer(ptr noundef %4)
  store ptr %5, ptr %3, align 8, !tbaa !29
  %6 = load ptr, ptr %3, align 8, !tbaa !29
  %7 = load ptr, ptr %6, align 8, !tbaa !38
  call void @llvm.lifetime.end.p0(i64 8, ptr %3) #10
  ret ptr %7
}

; Function Attrs: nounwind uwtable
define dso_local void @PyObject_ClearManagedDict(ptr noundef %0) #0 {
  %2 = alloca ptr, align 8
  %3 = alloca ptr, align 8
  %4 = alloca ptr, align 8
  %5 = alloca ptr, align 8
  store ptr %0, ptr %2, align 8, !tbaa !27
  %6 = load ptr, ptr %2, align 8, !tbaa !27
  %7 = call i32 @set_or_clear_managed_dict(ptr noundef %6, ptr noundef null, i1 noundef zeroext true)
  %8 = icmp slt i32 %7, 0
  br i1 %8, label %9, label %27

9:                                                ; preds = %1
  call void (ptr, ...) @PyErr_FormatUnraisable(ptr noundef @.str.39)
  call void @llvm.lifetime.start.p0(i64 8, ptr %3) #10
  %10 = load ptr, ptr %2, align 8, !tbaa !27
  %11 = call ptr @_PyObject_GetManagedDict(ptr noundef %10)
  store ptr %11, ptr %3, align 8, !tbaa !29
  %12 = load ptr, ptr %2, align 8, !tbaa !27
  %13 = call ptr @_PyObject_ManagedDictPointer(ptr noundef %12)
  %14 = load ptr, ptr %13, align 8, !tbaa !38
  store ptr %14, ptr %3, align 8, !tbaa !29
  call void @llvm.lifetime.start.p0(i64 8, ptr %4) #10
  %15 = call ptr @_PyInterpreterState_GET()
  store ptr %15, ptr %4, align 8, !tbaa !71
  call void @llvm.lifetime.start.p0(i64 8, ptr %5) #10
  %16 = load ptr, ptr %3, align 8, !tbaa !29
  %17 = getelementptr inbounds nuw %struct.PyDictObject, ptr %16, i32 0, i32 3
  %18 = load ptr, ptr %17, align 8, !tbaa !30
  store ptr %18, ptr %5, align 8, !tbaa !36
  %19 = load ptr, ptr %3, align 8, !tbaa !29
  call void @set_keys(ptr noundef %19, ptr noundef @empty_keys_struct)
  %20 = load ptr, ptr %3, align 8, !tbaa !29
  %21 = getelementptr inbounds nuw %struct.PyDictObject, ptr %20, i32 0, i32 4
  store ptr null, ptr %21, align 8, !tbaa !37
  %22 = load ptr, ptr %4, align 8, !tbaa !71
  %23 = load ptr, ptr %5, align 8, !tbaa !36
  call void @dictkeys_decref(ptr noundef %22, ptr noundef %23, i1 noundef zeroext false)
  %24 = load ptr, ptr %3, align 8, !tbaa !29
  %25 = getelementptr inbounds nuw %struct.PyDictObject, ptr %24, i32 0, i32 1
  store i64 0, ptr %25, align 8, !tbaa !40
  %26 = load ptr, ptr %2, align 8, !tbaa !27
  call void @set_dict_inline_values(ptr noundef %26, ptr noundef null)
  call void @llvm.lifetime.end.p0(i64 8, ptr %5) #10
  call void @llvm.lifetime.end.p0(i64 8, ptr %4) #10
  call void @llvm.lifetime.end.p0(i64 8, ptr %3) #10
  br label %27

27:                                               ; preds = %9, %1
  ret void
}