; Function Attrs: nounwind uwtable
define dso_local void @PyObject_ClearManagedDict(ptr noundef %0) local_unnamed_addr #0 {
  %2 = tail call fastcc i32 @set_or_clear_managed_dict(ptr noundef %0, ptr noundef null, i1 noundef zeroext true)
  %3 = icmp slt i32 %2, 0
  br i1 %3, label %4, label %set_dict_inline_values.exit

4:                                                ; preds = %1
  tail call void (ptr, ...) @PyErr_FormatUnraisable(ptr noundef nonnull @.str.39) #23
  %5 = getelementptr i8, ptr %0, i64 -24
  %6 = load ptr, ptr %5, align 8, !tbaa !41
  %7 = getelementptr inbounds nuw i8, ptr %6, i64 32
  %8 = load ptr, ptr %7, align 8, !tbaa !36
  store ptr @empty_keys_struct, ptr %7, align 8, !tbaa !36
  %9 = getelementptr inbounds nuw i8, ptr %6, i64 40
  store ptr null, ptr %9, align 8, !tbaa !40
  tail call fastcc void @dictkeys_decref(ptr noundef %8)
  %10 = getelementptr inbounds nuw i8, ptr %6, i64 16
  store i64 0, ptr %10, align 8, !tbaa !43
  %11 = getelementptr i8, ptr %0, i64 8
  %.val.i.i = load ptr, ptr %11, align 8, !tbaa !25
  %12 = getelementptr inbounds nuw i8, ptr %.val.i.i, i64 32
  %13 = load i64, ptr %12, align 8, !tbaa !175
  %14 = getelementptr i8, ptr %0, i64 %13
  store ptr null, ptr %5, align 8, !tbaa !41
  %15 = getelementptr inbounds nuw i8, ptr %14, i64 3
  %16 = load i8, ptr %15, align 1, !tbaa !46
  %.not.i = icmp eq i8 %16, 0
  br i1 %.not.i, label %set_dict_inline_values.exit, label %17

17:                                               ; preds = %4
  store i8 0, ptr %15, align 1, !tbaa !46
  %18 = load i8, ptr %14, align 8, !tbaa !63
  %.not18.i = icmp eq i8 %18, 0
  br i1 %.not18.i, label %set_dict_inline_values.exit, label %.lr.ph.i

.lr.ph.i:                                         ; preds = %17
  %19 = getelementptr inbounds nuw i8, ptr %14, i64 8
  br label %20

20:                                               ; preds = %Py_DECREF.exit.i, %.lr.ph.i
  %.017.i = phi i64 [ 0, %.lr.ph.i ], [ %29, %Py_DECREF.exit.i ]
  %21 = getelementptr [1 x ptr], ptr %19, i64 0, i64 %.017.i
  %22 = load ptr, ptr %21, align 8, !tbaa !64
  %.not15.i = icmp eq ptr %22, null
  br i1 %.not15.i, label %Py_DECREF.exit.i, label %23

23:                                               ; preds = %20
  store ptr null, ptr %21, align 8, !tbaa !64
  %24 = load i32, ptr %22, align 8, !tbaa !41
  %.not.i.i = icmp sgt i32 %24, -1
  br i1 %.not.i.i, label %25, label %Py_DECREF.exit.i

25:                                               ; preds = %23
  %26 = add nsw i32 %24, -1
  store i32 %26, ptr %22, align 8, !tbaa !41
  %27 = icmp eq i32 %26, 0
  br i1 %27, label %28, label %Py_DECREF.exit.i

28:                                               ; preds = %25
  tail call void @_Py_Dealloc(ptr noundef nonnull %22) #23
  br label %Py_DECREF.exit.i

Py_DECREF.exit.i:                                 ; preds = %28, %25, %23, %20
  %29 = add nuw nsw i64 %.017.i, 1
  %30 = load i8, ptr %14, align 8, !tbaa !63
  %31 = zext i8 %30 to i64
  %32 = icmp samesign ult i64 %29, %31
  br i1 %32, label %20, label %set_dict_inline_values.exit, !llvm.loop !222

set_dict_inline_values.exit:                      ; preds = %Py_DECREF.exit.i, %17, %4, %1
  ret void
}